; Function Attrs: nounwind uwtable
define dso_local range(i32 -1, 1) i32 @PyCell_Set(ptr noundef captures(none) %0, ptr noundef %1) local_unnamed_addr #0 {
  %3 = getelementptr i8, ptr %0, i64 8
  %.val = load ptr, ptr %3, align 8, !tbaa !98
  %.not = icmp eq ptr %.val, @PyCell_Type
  br i1 %.not, label %5, label %4

4:                                                ; preds = %2
  tail call void @_PyErr_BadInternalCall(ptr noundef nonnull @.str, i32 noundef 69) #4
  br label %PyCell_SetTakeRef.exit

5:                                                ; preds = %2
  %.not.i.i = icmp eq ptr %1, null
  br i1 %.not.i.i, label %_Py_XNewRef.exit, label %6

6:                                                ; preds = %5
  %7 = load i32, ptr %1, align 8, !tbaa !4
  %8 = icmp slt i32 %7, 0
  br i1 %8, label %_Py_XNewRef.exit, label %9

9:                                                ; preds = %6
  %10 = add nuw i32 %7, 1
  store i32 %10, ptr %1, align 8, !tbaa !4
  br label %_Py_XNewRef.exit

_Py_XNewRef.exit:                                 ; preds = %5, %6, %9
  %11 = getelementptr inbounds nuw i8, ptr %0, i64 16
  %12 = load ptr, ptr %11, align 8, !tbaa !7
  store ptr %1, ptr %11, align 8, !tbaa !7
  %.not.i.i3 = icmp eq ptr %12, null
  br i1 %.not.i.i3, label %PyCell_SetTakeRef.exit, label %13

13:                                               ; preds = %_Py_XNewRef.exit
  %14 = load i32, ptr %12, align 8, !tbaa !4
  %.not.i.i.i = icmp sgt i32 %14, -1
  br i1 %.not.i.i.i, label %15, label %PyCell_SetTakeRef.exit

15:                                               ; preds = %13
  %16 = add nsw i32 %14, -1
  store i32 %16, ptr %12, align 8, !tbaa !4
  %17 = icmp eq i32 %16, 0
  br i1 %17, label %18, label %PyCell_SetTakeRef.exit

18:                                               ; preds = %15
  tail call void @_Py_Dealloc(ptr noundef nonnull %12) #4
  br label %PyCell_SetTakeRef.exit

PyCell_SetTakeRef.exit:                           ; preds = %18, %15, %13, %_Py_XNewRef.exit, %4
  %.0 = phi i32 [ -1, %4 ], [ 0, %_Py_XNewRef.exit ], [ 0, %13 ], [ 0, %15 ], [ 0, %18 ]
  ret i32 %.0
}